1		0000		3F00			MOV R7,#0H
2		0002		        		W1:
3		0002		680002		JNPB W1
4		0005		300A			MOV A,#AH
5		0007		488002		STA 8002H
6		000A		        		W2:
7		000A		68000A		JNPB W2
8		000D		488002		STA 8002H
9		0010		        		L2:
10		0010		600010		JNKB L2
11		0013		408001		LDA 8001H
12		0016		0A			MOV R2,A
13		0017		        		L1:
14		0017		600017		JNKB L1
15		001A		408001		LDA 8001H
16		001D		09			MOV R1,A
17		001E		        		WL1:
18		001E		68001E		JNPB WL1
19		0021		488002		STA 8002H
20		0024		        		WL2:
21		0024		680024		JNPB WL2
22		0027		02			MOV A,R2
23		0028		3810			MOV R0,#10H
24		002A		20			ADD A,R0
25		002B		488002		STA 8002H
26		002E		        		WADD:
27		002E		68002E		JNPB WADD
28		0031		3010			MOV A,#10H
29		0033		488002		STA 8002H
30		0036		        		WADD1:
31		0036		680036		JNPB WADD1
32		0039		300A			MOV A,#AH
33		003B		488002		STA 8002H
34		003E		        		WADD2:
35		003E		68003E		JNPB WADD2
36		0041		488002		STA 8002H
37		0044		        		L4:
38		0044		600044		JNKB L4
39		0047		408001		LDA 8001H
40		004A		0C			MOV R4,A
41		004B		        		L3:
42		004B		60004B		JNKB L3
43		004E		408001		LDA 8001H
44		0051		0B			MOV R3,A
45		0052		        		W3:
46		0052		680052		JNPB W3
47		0055		488002		STA 8002H
48		0058		        		W4:
49		0058		680058		JNPB W4
50		005B		04			MOV A,R4
51		005C		3810			MOV R0,#10H
52		005E		20			ADD A,R0
53		005F		488002		STA 8002H
54		0062		        		WEQ:
55		0062		680062		JNPB WEQ
56		0065		3019			MOV A,#19H
57		0067		488002		STA 8002H
58		006A		        		WEQ1:
59		006A		68006A		JNPB WEQ1
60		006D		300A			MOV A,#AH
61		006F		488002		STA 8002H
62		0072		        		WEQ2:
63		0072		680072		JNPB WEQ2
64		0075		488002		STA 8002H
65		0078		04			MOV A,R4
66		0079		22			ADD A,R2
67		007A		0E			MOV R6,A
68		007B		01			MOV A,R1
69		007C		23			ADD A,R3
70		007D		0D			MOV R5,A
71		007E		380A			MOV R0, #AH
72		0080		28			SUB A,R0
73		0081		50008A		JC Z1
74		0084		0D			MOV R5,A
75		0085		3801			MOV R0,#1H
76		0087		06			MOV A,R6
77		0088		20			ADD A,R0
78		0089		0E			MOV R6,A
79		008A		        		Z1:
80		008A		380A			MOV R0,#AH
81		008C		06			MOV A,R6
82		008D		28			SUB A,R0
83		008E		500094		JC Z2
84		0091		0E			MOV R6,A
85		0092		3F01			MOV R7,#1H
86		0094		        		Z2:
87		0094		        		W5:
88		0094		680094		JNPB W5
89		0097		05			MOV A,R5
90		0098		488003		STA 8003H
91		009B		        		W6:
92		009B		68009B		JNPB W6
93		009E		06			MOV A,R6
94		009F		488003		STA 8003H
95		00A2		        		W7:
96		00A2		6800A2		JNPB W7
97		00A5		07			MOV A,R7
98		00A6		3810			MOV R0,#10H
99		00A8		20			ADD A,R0
100		00A9		488003		STA 8003H
101		00AC		        		LOOP:
102		00AC		5800AC		JMP LOOP
